Certificate:
    Data:
        Version: 3 (0x2)
        Serial Number: 1 (0x1)
        Signature Algorithm: ecdsa-with-SHA512
        Issuer: C=XX, O=XXXXXXXX, OU=XXXXXXXX Network CA, CN=XXXXXXXX CA
        Validity
            Not Before: Nov 22 18:50:42 2019 GMT
            Not After : Nov 21 18:50:42 2029 GMT
        Subject: C=XX, O=XXXXXXXX, OU=XXXXXXXX TLS CA, CN=XXXXXXXX TLS CA
        Subject Public Key Info:
            Public Key Algorithm: id-ecPublicKey
                Public-Key: (521 bit)
                pub:
                    04:00:80:8c:ad:9a:dc:c0:14:7f:3f:c7:e9:ce:88:
                    aa:66:9b:48:fd:73:56:40:33:74:c4:e1:2b:a1:fb:
                    52:19:c7:32:6e:5d:fe:2a:f7:0c:f0:64:79:d2:d7:
                    49:23:f8:6f:c3:72:68:1d:7d:db:b6:56:04:e0:c4:
                    63:0f:37:6d:fc:9c:45:01:b3:7d:5a:23:d4:1e:20:
                    69:22:4b:fa:09:bb:0a:52:74:d7:5d:aa:b8:94:e0:
                    6e:4f:24:fa:e9:2f:0b:6a:c8:5d:8b:6d:79:9d:29:
                    15:ba:71:58:e9:f6:7f:e8:9e:f7:be:4c:43:e0:76:
                    4c:f4:ef:aa:c0:cd:64:4a:70:5d:54:f3:8c
                ASN1 OID: secp521r1
                NIST CURVE: P-521
        X509v3 extensions:
            X509v3 Key Usage: critical
                Certificate Sign, CRL Sign
            X509v3 Basic Constraints: critical
                CA:TRUE, pathlen:0
            X509v3 Subject Key Identifier: 
                2A:BE:09:6C:1F:56:4D:0A:59:A0:39:EB:80:F1:B3:67:1A:58:82:C4
            X509v3 Authority Key Identifier: 
                keyid:07:77:0D:CF:2E:FE:B6:11:C8:2C:72:AC:EB:7B:56:9F:9D:14:C8:82

            Authority Information Access: 
                CA Issuers - URI:https://spe2eeapp.com/network-ca.cer

            X509v3 CRL Distribution Points: 

                Full Name:
                  URI:https://spe2eeapp.com/network-ca.crl

            X509v3 Certificate Policies: 
                Policy: Blue Medium Assurance
                Policy: Blue Medium Device Assurance

    Signature Algorithm: ecdsa-with-SHA512
         30:81:87:02:42:01:76:c4:2d:1e:bc:c5:6d:ae:9a:2a:df:4a:
         43:0d:d7:ac:01:d6:d8:c0:7c:fa:a3:72:dd:cd:b8:be:39:ff:
         f8:2e:93:e5:7b:84:f8:dd:3a:10:cb:9a:2c:52:9b:07:6c:89:
         35:ca:b6:5a:67:62:69:e0:f4:7e:b5:31:70:4f:82:13:69:02:
         41:07:6d:d6:25:44:83:89:1c:3b:b8:50:d8:9b:c4:a9:09:55:
         18:6d:4d:b4:4f:02:a3:fa:20:75:40:51:65:69:af:b9:fb:b1:
         92:b2:56:27:9d:51:be:ee:15:de:1d:9f:65:a9:c9:9a:54:0a:
         27:6f:f5:57:84:27:42:e3:fa:18:c8:66
-----BEGIN CERTIFICATE-----
MIIDJjCCAoigAwIBAgIBATAKBggqhkjOPQQDBDBUMQswCQYDVQQGEwJYWDERMA8G
A1UECgwIWFhYWFhYWFgxHDAaBgNVBAsME1hYWFhYWFhYIE5ldHdvcmsgQ0ExFDAS
BgNVBAMMC1hYWFhYWFhYIENBMB4XDTE5MTEyMjE4NTA0MloXDTI5MTEyMTE4NTA0
MlowVDELMAkGA1UEBhMCWFgxETAPBgNVBAoMCFhYWFhYWFhYMRgwFgYDVQQLDA9Y
WFhYWFhYWCBUTFMgQ0ExGDAWBgNVBAMMD1hYWFhYWFhYIFRMUyBDQTCBmzAQBgcq
hkjOPQIBBgUrgQQAIwOBhgAEAICMrZrcwBR/P8fpzoiqZptI/XNWQDN0xOEroftS
Gccybl3+KvcM8GR50tdJI/hvw3JoHX3btlYE4MRjDzdt/JxFAbN9WiPUHiBpIkv6
CbsKUnTXXaq4lOBuTyT66S8Lashdi215nSkVunFY6fZ/6J73vkxD4HZM9O+qwM1k
SnBdVPOMo4IBBjCCAQIwDgYDVR0PAQH/BAQDAgEGMBIGA1UdEwEB/wQIMAYBAf8C
AQAwHQYDVR0OBBYEFCq+CWwfVk0KWaA564Dxs2caWILEMB8GA1UdIwQYMBaAFAd3
Dc8u/rYRyCxyrOt7Vp+dFMiCMEAGCCsGAQUFBwEBBDQwMjAwBggrBgEFBQcwAoYk
aHR0cHM6Ly9zcGUyZWVhcHAuY29tL25ldHdvcmstY2EuY2VyMDUGA1UdHwQuMCww
KqAooCaGJGh0dHBzOi8vc3BlMmVlYXBwLmNvbS9uZXR3b3JrLWNhLmNybDAjBgNV
HSAEHDAaMAsGCSsGAQQBAAEHCDALBgkrBgEEAQABBwkwCgYIKoZIzj0EAwQDgYsA
MIGHAkIBdsQtHrzFba6aKt9KQw3XrAHW2MB8+qNy3c24vjn/+C6T5XuE+N06EMua
LFKbB2yJNcq2WmdiaeD0frUxcE+CE2kCQQdt1iVEg4kcO7hQ2JvEqQlVGG1NtE8C
o/ogdUBRZWmvufuxkrJWJ51Rvu4V3h2fZanJmlQKJ2/1V4QnQuP6GMhm
-----END CERTIFICATE-----
Certificate:
    Data:
        Version: 3 (0x2)
        Serial Number: 2 (0x2)
        Signature Algorithm: ecdsa-with-SHA512
        Issuer: C=XX, O=XXXXXXXX, OU=XXXXXXXX, CN=XXXXXXXX Root CA
        Validity
            Not Before: Nov 22 18:50:15 2019 GMT
            Not After : Dec 31 23:59:59 2030 GMT
        Subject: C=XX, O=XXXXXXXX, OU=XXXXXXXX Network CA, CN=XXXXXXXX CA
        Subject Public Key Info:
            Public Key Algorithm: id-ecPublicKey
                Public-Key: (521 bit)
                pub:
                    04:01:43:76:93:e5:aa:87:1a:f6:fa:5b:00:5f:6d:
                    2b:38:2b:da:33:60:8b:1e:b9:41:ef:b5:4e:e8:38:
                    72:6e:01:1f:41:4d:69:6c:30:cc:a6:cf:6c:c9:f9:
                    9c:e7:df:08:76:42:c8:9f:07:a1:45:45:d6:f0:99:
                    a4:46:59:c8:f8:93:9c:00:7a:9e:22:8e:4d:a9:dd:
                    2f:17:81:73:a5:41:fd:87:25:f0:4e:7a:d7:a2:c0:
                    d1:ca:dd:64:ca:bf:95:66:03:f8:12:5d:bf:39:e3:
                    dd:42:8a:ec:5d:08:48:b4:59:06:1d:e9:89:a2:12:
                    a2:dd:a9:ba:e8:c7:b8:82:7a:ca:27:6e:75
                ASN1 OID: secp521r1
                NIST CURVE: P-521
        X509v3 extensions:
            X509v3 Key Usage: critical
                Certificate Sign, CRL Sign
            X509v3 Basic Constraints: critical
                CA:TRUE
            X509v3 Subject Key Identifier: 
                07:77:0D:CF:2E:FE:B6:11:C8:2C:72:AC:EB:7B:56:9F:9D:14:C8:82
            X509v3 Authority Key Identifier: 
                keyid:E0:11:11:56:BF:65:8F:BA:B5:0D:A6:A5:D1:E5:FE:6D:B1:78:88:B5

            Authority Information Access: 
                CA Issuers - URI:https://spe2eeapp.com/root-ca.cer

            X509v3 CRL Distribution Points: 

                Full Name:
                  URI:https://spe2eeapp.com/root-ca.crl

            X509v3 Certificate Policies: 
                Policy: Blue Medium Assurance
                Policy: Blue Medium Device Assurance

    Signature Algorithm: ecdsa-with-SHA512
         30:81:87:02:42:01:4a:f3:24:3b:81:81:4b:2a:78:fe:53:fe:
         e0:0d:e4:f2:6c:82:b4:c3:ca:07:77:06:11:a5:6d:dc:b7:d7:
         4d:49:1b:de:c8:87:a9:b2:a0:20:a5:ea:18:29:65:de:58:97:
         2d:ee:0d:5e:a5:27:8a:66:65:82:ee:02:a6:03:56:12:6e:02:
         41:31:01:23:7c:b1:ff:26:06:52:6d:4b:3a:67:7d:e1:c2:ae:
         81:7f:b3:0c:32:28:79:6f:3d:55:95:d3:3b:33:ec:e6:3c:10:
         dc:02:a2:24:82:74:86:52:2c:38:4d:7c:dd:fd:ae:3c:12:5b:
         d1:2d:2d:d3:bd:d2:d4:fb:79:ea:7d:39
-----BEGIN CERTIFICATE-----
MIIDFTCCAnegAwIBAgIBAjAKBggqhkjOPQQDBDBOMQswCQYDVQQGEwJYWDERMA8G
A1UECgwIWFhYWFhYWFgxETAPBgNVBAsMCFhYWFhYWFhYMRkwFwYDVQQDDBBYWFhY
WFhYWCBSb290IENBMB4XDTE5MTEyMjE4NTAxNVoXDTMwMTIzMTIzNTk1OVowVDEL
MAkGA1UEBhMCWFgxETAPBgNVBAoMCFhYWFhYWFhYMRwwGgYDVQQLDBNYWFhYWFhY
WCBOZXR3b3JrIENBMRQwEgYDVQQDDAtYWFhYWFhYWCBDQTCBmzAQBgcqhkjOPQIB
BgUrgQQAIwOBhgAEAUN2k+Wqhxr2+lsAX20rOCvaM2CLHrlB77VO6DhybgEfQU1p
bDDMps9syfmc598IdkLInwehRUXW8JmkRlnI+JOcAHqeIo5Nqd0vF4FzpUH9hyXw
TnrXosDRyt1kyr+VZgP4El2/OePdQorsXQhItFkGHemJohKi3am66Me4gnrKJ251
o4H8MIH5MA4GA1UdDwEB/wQEAwIBBjAPBgNVHRMBAf8EBTADAQH/MB0GA1UdDgQW
BBQHdw3PLv62Ecgscqzre1afnRTIgjAfBgNVHSMEGDAWgBTgERFWv2WPurUNpqXR
5f5tsXiItTA9BggrBgEFBQcBAQQxMC8wLQYIKwYBBQUHMAKGIWh0dHBzOi8vc3Bl
MmVlYXBwLmNvbS9yb290LWNhLmNlcjAyBgNVHR8EKzApMCegJaAjhiFodHRwczov
L3NwZTJlZWFwcC5jb20vcm9vdC1jYS5jcmwwIwYDVR0gBBwwGjALBgkrBgEEAQAB
BwgwCwYJKwYBBAEAAQcJMAoGCCqGSM49BAMEA4GLADCBhwJCAUrzJDuBgUsqeP5T
/uAN5PJsgrTDygd3BhGlbdy3101JG97Ih6myoCCl6hgpZd5Yly3uDV6lJ4pmZYLu
AqYDVhJuAkExASN8sf8mBlJtSzpnfeHCroF/swwyKHlvPVWV0zsz7OY8ENwCoiSC
dIZSLDhNfN39rjwSW9EtLdO90tT7eep9OQ==
-----END CERTIFICATE-----
Certificate:
    Data:
        Version: 3 (0x2)
        Serial Number: 1 (0x1)
        Signature Algorithm: ecdsa-with-SHA512
        Issuer: C=XX, O=XXXXXXXX, OU=XXXXXXXX, CN=XXXXXXXX Root CA
        Validity
            Not Before: Nov 22 18:49:42 2019 GMT
            Not After : Dec 31 23:59:59 2030 GMT
        Subject: C=XX, O=XXXXXXXX, OU=XXXXXXXX, CN=XXXXXXXX Root CA
        Subject Public Key Info:
            Public Key Algorithm: id-ecPublicKey
                Public-Key: (521 bit)
                pub:
                    04:01:23:01:55:47:f5:d9:ac:f5:99:9e:c2:90:17:
                    2a:37:83:77:04:dc:9a:ed:1e:fd:f5:11:59:31:9c:
                    38:19:2a:03:63:b8:74:ec:a5:54:8c:9f:9a:d7:89:
                    05:e9:88:78:ca:fb:34:cc:27:6d:dd:d7:ad:ee:a4:
                    70:1c:7a:5d:91:69:4a:00:f8:6e:9e:ba:1b:7e:ea:
                    1a:a8:dc:5f:ae:e4:82:f9:4d:49:9f:00:3a:a4:cc:
                    2c:ff:6a:f8:2d:77:5b:5d:fb:1f:67:02:79:61:31:
                    34:b0:2c:ec:0c:1c:7f:2f:d9:c1:e4:a1:1e:32:b0:
                    76:87:3e:a4:03:51:ac:c8:39:cb:a5:16:cb
                ASN1 OID: secp521r1
                NIST CURVE: P-521
        X509v3 extensions:
            X509v3 Key Usage: critical
                Certificate Sign, CRL Sign
            X509v3 Basic Constraints: critical
                CA:TRUE
            X509v3 Subject Key Identifier: 
                E0:11:11:56:BF:65:8F:BA:B5:0D:A6:A5:D1:E5:FE:6D:B1:78:88:B5
            X509v3 Authority Key Identifier: 
                keyid:E0:11:11:56:BF:65:8F:BA:B5:0D:A6:A5:D1:E5:FE:6D:B1:78:88:B5

    Signature Algorithm: ecdsa-with-SHA512
         30:81:88:02:42:01:83:2b:3c:a8:ff:0d:4a:99:36:72:9f:29:
         40:44:91:6f:f5:13:0e:9f:f5:82:cf:aa:12:b0:05:07:d2:d6:
         87:e4:e2:e8:da:70:b2:5b:64:80:c7:1c:8b:19:56:35:e6:72:
         28:4e:2f:ef:db:89:a5:ea:3b:ef:bd:34:ad:9c:4a:14:c8:02:
         42:01:22:eb:4f:9b:7c:09:6d:8a:67:7b:1e:f2:00:c3:a3:ab:
         a6:1e:2a:2c:a3:dd:97:e9:7c:e3:68:b6:c7:0d:d1:c7:22:6d:
         4d:25:0a:90:9a:0f:62:18:a8:2a:1a:a1:63:46:49:5c:a0:5d:
         29:bb:5c:9f:85:ce:ec:84:bb:73:36:92:5b
-----BEGIN CERTIFICATE-----
MIICdjCCAdegAwIBAgIBATAKBggqhkjOPQQDBDBOMQswCQYDVQQGEwJYWDERMA8G
A1UECgwIWFhYWFhYWFgxETAPBgNVBAsMCFhYWFhYWFhYMRkwFwYDVQQDDBBYWFhY
WFhYWCBSb290IENBMB4XDTE5MTEyMjE4NDk0MloXDTMwMTIzMTIzNTk1OVowTjEL
MAkGA1UEBhMCWFgxETAPBgNVBAoMCFhYWFhYWFhYMREwDwYDVQQLDAhYWFhYWFhY
WDEZMBcGA1UEAwwQWFhYWFhYWFggUm9vdCBDQTCBmzAQBgcqhkjOPQIBBgUrgQQA
IwOBhgAEASMBVUf12az1mZ7CkBcqN4N3BNya7R799RFZMZw4GSoDY7h07KVUjJ+a
14kF6Yh4yvs0zCdt3det7qRwHHpdkWlKAPhunrobfuoaqNxfruSC+U1JnwA6pMws
/2r4LXdbXfsfZwJ5YTE0sCzsDBx/L9nB5KEeMrB2hz6kA1GsyDnLpRbLo2MwYTAO
BgNVHQ8BAf8EBAMCAQYwDwYDVR0TAQH/BAUwAwEB/zAdBgNVHQ4EFgQU4BERVr9l
j7q1Daal0eX+bbF4iLUwHwYDVR0jBBgwFoAU4BERVr9lj7q1Daal0eX+bbF4iLUw
CgYIKoZIzj0EAwQDgYwAMIGIAkIBgys8qP8NSpk2cp8pQESRb/UTDp/1gs+qErAF
B9LWh+Ti6NpwsltkgMccixlWNeZyKE4v79uJpeo77700rZxKFMgCQgEi60+bfAlt
imd7HvIAw6Orph4qLKPdl+l842i2xw3RxyJtTSUKkJoPYhioKhqhY0ZJXKBdKbtc
n4XO7IS7czaSWw==
-----END CERTIFICATE-----
